; Function Attrs: nounwind uwtable
define ptr @l_Lean_Widget_goalToInteractive(ptr noundef %0, ptr noundef %1, ptr noundef %2, ptr noundef %3, ptr noundef %4, ptr noundef %5) local_unnamed_addr #1 {
  %7 = getelementptr inbounds nuw i8, ptr %3, i64 24
  %8 = load ptr, ptr %7, align 8, !tbaa !4
  %9 = ptrtoint ptr %8 to i64
  %10 = and i64 %9, 1
  %.not = icmp eq i64 %10, 0
  br i1 %.not, label %11, label %lean_inc.exit28

11:                                               ; preds = %6
  %.val.i = load i32, ptr %8, align 4, !tbaa !8
  %12 = icmp sgt i32 %.val.i, 0
  br i1 %12, label %13, label %15, !prof !11

13:                                               ; preds = %11
  %14 = add nuw i32 %.val.i, 1
  store i32 %14, ptr %8, align 4, !tbaa !8
  br label %lean_inc.exit28

15:                                               ; preds = %11
  %.not.i29 = icmp eq i32 %.val.i, 0
  br i1 %.not.i29, label %lean_inc.exit28, label %16

16:                                               ; preds = %15
  tail call void @lean_inc_ref_cold(ptr noundef nonnull %8) #6
  br label %lean_inc.exit28

lean_inc.exit28:                                  ; preds = %16, %15, %13, %6
  %17 = load ptr, ptr @l_Lean_Widget_goalToInteractive___closed__1, align 8, !tbaa !4
  %18 = tail call zeroext i8 @l_Lean_Option_get___at___private_Lean_Util_Profile_0__Lean_get__profiler___spec__1(ptr noundef %8, ptr noundef %17) #6
  %19 = load ptr, ptr @l_Lean_Widget_goalToInteractive___closed__2, align 8, !tbaa !4
  %20 = tail call zeroext i8 @l_Lean_Option_get___at___private_Lean_Util_Profile_0__Lean_get__profiler___spec__1(ptr noundef %8, ptr noundef %19) #6
  %21 = load ptr, ptr @l_Lean_Widget_goalToInteractive___closed__3, align 8, !tbaa !4
  %22 = tail call zeroext i8 @l_Lean_Option_get___at___private_Lean_Util_Profile_0__Lean_get__profiler___spec__1(ptr noundef %8, ptr noundef %21) #6
  br i1 %.not, label %23, label %lean_dec.exit

23:                                               ; preds = %lean_inc.exit28
  %24 = load i32, ptr %8, align 4, !tbaa !8
  %25 = icmp sgt i32 %24, 1
  br i1 %25, label %26, label %28, !prof !11

26:                                               ; preds = %23
  %27 = add nsw i32 %24, -1
  store i32 %27, ptr %8, align 4, !tbaa !8
  br label %lean_dec.exit

28:                                               ; preds = %23
  %.not.i = icmp eq i32 %24, 0
  br i1 %.not.i, label %lean_dec.exit, label %29

29:                                               ; preds = %28
  tail call void @lean_dec_ref_cold(ptr noundef nonnull %8) #6
  br label %lean_dec.exit

lean_dec.exit:                                    ; preds = %29, %28, %26, %lean_inc.exit28
  %30 = ptrtoint ptr %0 to i64
  %31 = and i64 %30, 1
  %.not33 = icmp eq i64 %31, 0
  br i1 %.not33, label %32, label %lean_inc.exit

32:                                               ; preds = %lean_dec.exit
  %.val.i30 = load i32, ptr %0, align 4, !tbaa !8
  %33 = icmp sgt i32 %.val.i30, 0
  br i1 %33, label %34, label %36, !prof !11

34:                                               ; preds = %32
  %35 = add nuw i32 %.val.i30, 1
  store i32 %35, ptr %0, align 4, !tbaa !8
  br label %lean_inc.exit

36:                                               ; preds = %32
  %.not.i31 = icmp eq i32 %.val.i30, 0
  br i1 %.not.i31, label %lean_inc.exit, label %37

37:                                               ; preds = %36
  tail call void @lean_inc_ref_cold(ptr noundef nonnull %0) #6
  br label %lean_inc.exit

lean_inc.exit:                                    ; preds = %37, %36, %34, %lean_dec.exit
  tail call void @lean_inc_heartbeat() #6
  %38 = tail call noalias ptr @mi_malloc_small(i64 noundef 56) #6
  %39 = icmp eq ptr %38, null
  br i1 %39, label %40, label %lean_alloc_closure.exit

40:                                               ; preds = %lean_inc.exit
  tail call void @lean_internal_panic_out_of_memory() #7
  unreachable

lean_alloc_closure.exit:                          ; preds = %lean_inc.exit
  %41 = zext i8 %22 to i64
  %42 = shl nuw nsw i64 %41, 1
  %43 = or disjoint i64 %42, 1
  %44 = inttoptr i64 %43 to ptr
  %45 = zext i8 %20 to i64
  %46 = shl nuw nsw i64 %45, 1
  %47 = or disjoint i64 %46, 1
  %48 = inttoptr i64 %47 to ptr
  %49 = zext i8 %18 to i64
  %50 = shl nuw nsw i64 %49, 1
  %51 = or disjoint i64 %50, 1
  %52 = inttoptr i64 %51 to ptr
  %53 = getelementptr inbounds nuw i8, ptr %38, i64 4
  store i32 1, ptr %38, align 4, !tbaa !8
  store i32 -184549320, ptr %53, align 4
  %54 = getelementptr inbounds nuw i8, ptr %38, i64 8
  store ptr @l_Lean_Widget_goalToInteractive___lambda__1___boxed, ptr %54, align 8, !tbaa !4
  %55 = getelementptr inbounds nuw i8, ptr %38, i64 16
  store i16 11, ptr %55, align 8, !tbaa !15
  %56 = getelementptr inbounds nuw i8, ptr %38, i64 18
  store i16 4, ptr %56, align 2, !tbaa !15
  %57 = getelementptr inbounds nuw i8, ptr %38, i64 24
  store ptr %52, ptr %57, align 8, !tbaa !4
  %58 = getelementptr inbounds nuw i8, ptr %38, i64 32
  store ptr %48, ptr %58, align 8, !tbaa !4
  %59 = getelementptr inbounds nuw i8, ptr %38, i64 40
  store ptr %44, ptr %59, align 8, !tbaa !4
  %60 = getelementptr inbounds nuw i8, ptr %38, i64 48
  store ptr %0, ptr %60, align 8, !tbaa !4
  %61 = tail call ptr @l_Lean_Widget_withGoalCtx___at_Lean_Widget_goalToInteractive___spec__8___rarg(ptr noundef %0, ptr noundef nonnull %38, ptr noundef %1, ptr noundef %2, ptr noundef nonnull %3, ptr noundef %4, ptr noundef %5)
  ret ptr %61
}